#include <math.h>
#include <stdio.h>
#include <stdlib.h>
#include <string.h>

void main()
{
	int i,r=1;
	char a[60],b[60];
	scanf("%s%s",a,b);
	for(i=0;r==1;i++)
	if(a[0]==b[i]){printf("%d\n",i);r=0;}
}